; Function Attrs: mustprogress uwtable
define void @_ZN7testing8internal7PrintToEPKDsPSo(ptr noundef %0, ptr noundef %1) local_unnamed_addr #3 {
  %3 = icmp eq ptr %0, null
  br i1 %3, label %4, label %6

4:                                                ; preds = %2
  %5 = tail call noundef nonnull align 8 dereferenceable(8) ptr @_ZSt16__ostream_insertIcSt11char_traitsIcEERSt13basic_ostreamIT_T0_ES6_PKS3_l(ptr noundef nonnull align 8 dereferenceable(8) %1, ptr noundef nonnull @.str.515, i64 noundef 4)
  br label %_ZN7testing8internal12_GLOBAL__N_114PrintCStringToIDsEEvPKT_PSo.exit

6:                                                ; preds = %2
  %7 = tail call noundef nonnull align 8 dereferenceable(8) ptr @_ZNSo9_M_insertIPKvEERSoT_(ptr noundef nonnull align 8 dereferenceable(8) %1, ptr noundef nonnull %0)
  %8 = tail call noundef nonnull align 8 dereferenceable(8) ptr @_ZSt16__ostream_insertIcSt11char_traitsIcEERSt13basic_ostreamIT_T0_ES6_PKS3_l(ptr noundef nonnull align 8 dereferenceable(8) %7, ptr noundef nonnull @.str.531, i64 noundef 13)
  br label %9

9:                                                ; preds = %9, %6
  %.0.i.i = phi i64 [ 0, %6 ], [ %13, %9 ]
  %10 = getelementptr inbounds nuw i16, ptr %0, i64 %.0.i.i
  %11 = load i16, ptr %10, align 2, !tbaa !573
  %12 = icmp eq i16 %11, 0
  %13 = add i64 %.0.i.i, 1
  br i1 %12, label %_ZNSt11char_traitsIDsE6lengthEPKDs.exit.i, label %9, !llvm.loop !579

_ZNSt11char_traitsIDsE6lengthEPKDs.exit.i:        ; preds = %9
  tail call fastcc void @_ZN7testing8internalL20PrintCharsAsStringToIDsEENS0_10CharFormatEPKT_mPSo(ptr noundef nonnull %0, i64 noundef %.0.i.i, ptr noundef nonnull %1)
  br label %_ZN7testing8internal12_GLOBAL__N_114PrintCStringToIDsEEvPKT_PSo.exit

_ZN7testing8internal12_GLOBAL__N_114PrintCStringToIDsEEvPKT_PSo.exit: ; preds = %4, %_ZNSt11char_traitsIDsE6lengthEPKDs.exit.i
  ret void
}